; Function Attrs: mustprogress uwtable
define dso_local noundef nonnull align 8 dereferenceable(56) ptr @_ZN8V3Number6opLenNERKS_(ptr noundef nonnull returned align 8 dereferenceable(56) %0, ptr noundef nonnull align 8 dereferenceable(56) %1) local_unnamed_addr #3 align 2 personality ptr @__gxx_personality_v0 {
  %3 = alloca %"class.std::__cxx11::basic_string", align 8
  %.not = icmp eq ptr %0, %1
  br i1 %.not, label %4, label %8, !prof !134

4:                                                ; preds = %2
  %5 = tail call noundef nonnull align 8 dereferenceable(112) ptr @_ZN7V3Error19v3errorPrepFileLineB5cxx11E11V3ErrorCodePKci(i8 4, ptr noundef nonnull @.str.15, i32 noundef 1437)
  %6 = tail call noundef nonnull align 8 dereferenceable(112) ptr @_ZN7V3Error10v3errorStrB5cxx11Ev()
  %7 = tail call noundef nonnull align 8 dereferenceable(8) ptr @_ZStlsISt11char_traitsIcEERSt13basic_ostreamIcT_ES5_PKc(ptr noundef nonnull align 8 dereferenceable(8) %6, ptr noundef nonnull @.str.51)
  tail call void @_ZNK8V3Number15v3errorEndFatalERKNSt7__cxx1119basic_ostringstreamIcSt11char_traitsIcESaIcEEE(ptr noundef nonnull align 8 dereferenceable(56) %0, ptr noundef nonnull align 8 dereferenceable(112) %7) #34
  unreachable

8:                                                ; preds = %2
  %9 = getelementptr inbounds nuw i8, ptr %1, i64 36
  %10 = load i8, ptr %9, align 4, !tbaa !40
  %11 = icmp eq i8 %10, 3
  br i1 %11, label %18, label %12, !prof !41

12:                                               ; preds = %8
  %13 = tail call noundef nonnull align 8 dereferenceable(112) ptr @_ZN7V3Error19v3errorPrepFileLineB5cxx11E11V3ErrorCodePKci(i8 4, ptr noundef nonnull @.str.15, i32 noundef 1438)
  %14 = tail call noundef nonnull align 8 dereferenceable(112) ptr @_ZN7V3Error10v3errorStrB5cxx11Ev()
  %15 = tail call noundef nonnull align 8 dereferenceable(8) ptr @_ZStlsISt11char_traitsIcEERSt13basic_ostreamIcT_ES5_PKc(ptr noundef nonnull align 8 dereferenceable(8) %14, ptr noundef nonnull @.str.54)
  %16 = tail call noundef nonnull align 8 dereferenceable(8) ptr @_ZlsRSoRK8V3Number(ptr noundef nonnull align 8 dereferenceable(8) %15, ptr noundef nonnull align 8 dereferenceable(56) %1)
  %17 = tail call noundef nonnull align 8 dereferenceable(8) ptr @_ZStlsISt11char_traitsIcEERSt13basic_ostreamIcT_ES5_c(ptr noundef nonnull align 8 dereferenceable(8) %16, i8 noundef signext 34)
  tail call void @_ZNK8V3Number15v3errorEndFatalERKNSt7__cxx1119basic_ostringstreamIcSt11char_traitsIcESaIcEEE(ptr noundef nonnull align 8 dereferenceable(56) %0, ptr noundef nonnull align 8 dereferenceable(112) %17) #34
  unreachable

18:                                               ; preds = %8
  call void @llvm.lifetime.start.p0(i64 32, ptr nonnull %3) #32
  call void @_ZNK8V3Number8toStringB5cxx11Ev(ptr dead_on_unwind nonnull writable sret(%"class.std::__cxx11::basic_string") align 8 %3, ptr noundef nonnull align 8 dereferenceable(56) %1)
  %19 = getelementptr inbounds nuw i8, ptr %3, i64 8
  %20 = load i64, ptr %19, align 8, !tbaa !17
  %21 = invoke noundef nonnull align 8 dereferenceable(56) ptr @_ZN8V3Number7setQuadEm(ptr noundef nonnull align 8 dereferenceable(56) %0, i64 noundef %20)
          to label %22 unwind label %30

22:                                               ; preds = %18
  %23 = load ptr, ptr %3, align 8, !tbaa !26
  %24 = getelementptr inbounds nuw i8, ptr %3, i64 16
  %25 = icmp eq ptr %23, %24
  br i1 %25, label %_ZNKSt7__cxx1112basic_stringIcSt11char_traitsIcESaIcEE11_M_is_localEv.exit.thread.i.i, label %_ZNKSt7__cxx1112basic_stringIcSt11char_traitsIcESaIcEE11_M_is_localEv.exit.i.i

_ZNKSt7__cxx1112basic_stringIcSt11char_traitsIcESaIcEE11_M_is_localEv.exit.thread.i.i: ; preds = %22
  %26 = load i64, ptr %19, align 8, !tbaa !17
  %27 = icmp ult i64 %26, 16
  call void @llvm.assume(i1 %27)
  br label %_ZNSt7__cxx1112basic_stringIcSt11char_traitsIcESaIcEED2Ev.exit

_ZNKSt7__cxx1112basic_stringIcSt11char_traitsIcESaIcEE11_M_is_localEv.exit.i.i: ; preds = %22
  %28 = load i64, ptr %24, align 8, !tbaa !20
  %29 = add i64 %28, 1
  call void @_ZdlPvm(ptr noundef %23, i64 noundef %29) #33
  br label %_ZNSt7__cxx1112basic_stringIcSt11char_traitsIcESaIcEED2Ev.exit

_ZNSt7__cxx1112basic_stringIcSt11char_traitsIcESaIcEED2Ev.exit: ; preds = %_ZNKSt7__cxx1112basic_stringIcSt11char_traitsIcESaIcEE11_M_is_localEv.exit.thread.i.i, %_ZNKSt7__cxx1112basic_stringIcSt11char_traitsIcESaIcEE11_M_is_localEv.exit.i.i
  call void @llvm.lifetime.end.p0(i64 32, ptr nonnull %3) #32
  ret ptr %0

30:                                               ; preds = %18
  %31 = landingpad { ptr, i32 }
          cleanup
  %32 = load ptr, ptr %3, align 8, !tbaa !26
  %33 = getelementptr inbounds nuw i8, ptr %3, i64 16
  %34 = icmp eq ptr %32, %33
  br i1 %34, label %_ZNKSt7__cxx1112basic_stringIcSt11char_traitsIcESaIcEE11_M_is_localEv.exit.thread.i.i7, label %_ZNKSt7__cxx1112basic_stringIcSt11char_traitsIcESaIcEE11_M_is_localEv.exit.i.i6

_ZNKSt7__cxx1112basic_stringIcSt11char_traitsIcESaIcEE11_M_is_localEv.exit.thread.i.i7: ; preds = %30
  %35 = load i64, ptr %19, align 8, !tbaa !17
  %36 = icmp ult i64 %35, 16
  call void @llvm.assume(i1 %36)
  br label %_ZNSt7__cxx1112basic_stringIcSt11char_traitsIcESaIcEED2Ev.exit8

_ZNKSt7__cxx1112basic_stringIcSt11char_traitsIcESaIcEE11_M_is_localEv.exit.i.i6: ; preds = %30
  %37 = load i64, ptr %33, align 8, !tbaa !20
  %38 = add i64 %37, 1
  call void @_ZdlPvm(ptr noundef %32, i64 noundef %38) #33
  br label %_ZNSt7__cxx1112basic_stringIcSt11char_traitsIcESaIcEED2Ev.exit8

_ZNSt7__cxx1112basic_stringIcSt11char_traitsIcESaIcEED2Ev.exit8: ; preds = %_ZNKSt7__cxx1112basic_stringIcSt11char_traitsIcESaIcEE11_M_is_localEv.exit.thread.i.i7, %_ZNKSt7__cxx1112basic_stringIcSt11char_traitsIcESaIcEE11_M_is_localEv.exit.i.i6
  call void @llvm.lifetime.end.p0(i64 32, ptr nonnull %3) #32
  resume { ptr, i32 } %31
}